; Function Attrs: mustprogress uwtable
define dso_local void @_ZNSt3__117__assoc_sub_state10__sub_waitERNS_11unique_lockINS_5mutexEEE(ptr noundef nonnull align 8 dereferenceable(116) %0, ptr noundef nonnull align 8 dereferenceable(9) %1) local_unnamed_addr #1 align 2 {
  %3 = getelementptr inbounds nuw i8, ptr %0, i64 112
  %4 = load i32, ptr %3, align 8, !tbaa !16
  %5 = and i32 %4, 4
  %.not3 = icmp eq i32 %5, 0
  br i1 %.not3, label %6, label %.loopexit

6:                                                ; preds = %2
  %7 = and i32 %4, 8
  %.not = icmp eq i32 %7, 0
  br i1 %.not, label %.lr.ph, label %9

.lr.ph:                                           ; preds = %6
  %8 = getelementptr inbounds nuw i8, ptr %0, i64 64
  br label %19

9:                                                ; preds = %6
  %10 = and i32 %4, -13
  store i32 %10, ptr %3, align 8, !tbaa !16
  %11 = getelementptr inbounds nuw i8, ptr %1, i64 8
  %12 = load i8, ptr %11, align 8, !tbaa !30, !range !33, !noundef !34
  %13 = trunc nuw i8 %12 to i1
  br i1 %13, label %_ZNSt3__111unique_lockINS_5mutexEE6unlockB8ne210000Ev.exit, label %14

14:                                               ; preds = %9
  tail call void @_ZNSt3__120__throw_system_errorEiPKc(i32 noundef 1, ptr noundef nonnull @.str.7) #23
  unreachable

_ZNSt3__111unique_lockINS_5mutexEE6unlockB8ne210000Ev.exit: ; preds = %9
  %15 = load ptr, ptr %1, align 8, !tbaa !26
  tail call void @_ZNSt3__15mutex6unlockEv(ptr noundef nonnull align 8 dereferenceable(40) %15) #21
  store i8 0, ptr %11, align 8, !tbaa !30
  %16 = load ptr, ptr %0, align 8, !tbaa !8
  %17 = getelementptr inbounds nuw i8, ptr %16, i64 24
  %18 = load ptr, ptr %17, align 8
  tail call void %18(ptr noundef nonnull align 8 dereferenceable(116) %0)
  br label %.loopexit

19:                                               ; preds = %.lr.ph, %19
  tail call void @_ZNSt3__118condition_variable4waitERNS_11unique_lockINS_5mutexEEE(ptr noundef nonnull align 8 dereferenceable(48) %8, ptr noundef nonnull align 8 dereferenceable(9) %1) #21
  %20 = load i32, ptr %3, align 8, !tbaa !16
  %21 = and i32 %20, 4
  %.not4 = icmp eq i32 %21, 0
  br i1 %.not4, label %19, label %.loopexit, !llvm.loop !31

.loopexit:                                        ; preds = %19, %_ZNSt3__111unique_lockINS_5mutexEE6unlockB8ne210000Ev.exit, %2
  ret void
}